; Function Attrs: mustprogress uwtable
define internal void @_ZNSt3any17_Manager_externalISt10shared_ptrIN5arrow12_GLOBAL__N_115SignalStopStateEEE9_S_manageENS_3_OpEPKS_PNS_4_ArgE(i32 noundef %0, ptr noundef captures(none) %1, ptr noundef captures(none) %2) #0 align 2 personality ptr @__gxx_personality_v0 {
  %4 = getelementptr inbounds nuw i8, ptr %1, i64 8
  %5 = load ptr, ptr %4, align 8, !tbaa !20
  switch i32 %0, label %55 [
    i32 0, label %6
    i32 1, label %7
    i32 2, label %8
    i32 3, label %24
    i32 4, label %50
  ]

6:                                                ; preds = %3
  store ptr %5, ptr %2, align 8, !tbaa !20
  br label %55

7:                                                ; preds = %3
  store ptr @_ZTISt10shared_ptrIN5arrow12_GLOBAL__N_115SignalStopStateEE, ptr %2, align 8, !tbaa !20
  br label %55

8:                                                ; preds = %3
  %9 = tail call noalias noundef nonnull dereferenceable(16) ptr @_Znwm(i64 noundef 16) #26
  %.val = load ptr, ptr %5, align 8, !tbaa !52
  %10 = getelementptr i8, ptr %5, i64 8
  %.val14 = load ptr, ptr %10, align 8, !tbaa !14
  store ptr %.val, ptr %9, align 8, !tbaa !52
  %11 = getelementptr inbounds nuw i8, ptr %9, i64 8
  store ptr %.val14, ptr %11, align 8, !tbaa !14
  %.not.i.i.i = icmp eq ptr %.val14, null
  br i1 %.not.i.i.i, label %_ZNSt10shared_ptrIN5arrow12_GLOBAL__N_115SignalStopStateEEC2ERKS3_.exit, label %12

12:                                               ; preds = %8
  %13 = getelementptr inbounds nuw i8, ptr %.val14, i64 8
  %14 = load i8, ptr @__libc_single_threaded, align 1, !tbaa !20
  %.not.i.i.i.i = icmp eq i8 %14, 0
  br i1 %.not.i.i.i.i, label %18, label %15

15:                                               ; preds = %12
  %16 = load i32, ptr %13, align 4, !tbaa !21
  %17 = add nsw i32 %16, 1
  store i32 %17, ptr %13, align 4, !tbaa !21
  br label %_ZNSt10shared_ptrIN5arrow12_GLOBAL__N_115SignalStopStateEEC2ERKS3_.exit

18:                                               ; preds = %12
  %19 = atomicrmw volatile add ptr %13, i32 1 acq_rel, align 4
  br label %_ZNSt10shared_ptrIN5arrow12_GLOBAL__N_115SignalStopStateEEC2ERKS3_.exit

_ZNSt10shared_ptrIN5arrow12_GLOBAL__N_115SignalStopStateEEC2ERKS3_.exit: ; preds = %8, %15, %18
  %20 = load ptr, ptr %2, align 8, !tbaa !20
  %21 = getelementptr inbounds nuw i8, ptr %20, i64 8
  store ptr %9, ptr %21, align 8, !tbaa !20
  %22 = load ptr, ptr %1, align 8, !tbaa !161
  %23 = load ptr, ptr %2, align 8, !tbaa !20
  store ptr %22, ptr %23, align 8, !tbaa !161
  br label %55

24:                                               ; preds = %3
  %25 = icmp eq ptr %5, null
  br i1 %25, label %55, label %26

26:                                               ; preds = %24
  %27 = getelementptr inbounds nuw i8, ptr %5, i64 8
  %28 = load ptr, ptr %27, align 8, !tbaa !14
  %.not.i.i = icmp eq ptr %28, null
  br i1 %.not.i.i, label %_ZNSt12__shared_ptrIN5arrow12_GLOBAL__N_115SignalStopStateELN9__gnu_cxx12_Lock_policyE2EED2Ev.exit, label %29

29:                                               ; preds = %26
  %30 = getelementptr inbounds nuw i8, ptr %28, i64 8
  %31 = load atomic i64, ptr %30 acquire, align 8
  %32 = icmp eq i64 %31, 4294967297
  %33 = trunc i64 %31 to i32
  br i1 %32, label %34, label %42

34:                                               ; preds = %29
  store i32 0, ptr %30, align 8, !tbaa !6
  %35 = getelementptr inbounds nuw i8, ptr %28, i64 12
  store i32 0, ptr %35, align 4, !tbaa !11
  %36 = load ptr, ptr %28, align 8, !tbaa !12
  %37 = getelementptr inbounds nuw i8, ptr %36, i64 16
  %38 = load ptr, ptr %37, align 8
  tail call void %38(ptr noundef nonnull align 8 dereferenceable(16) %28) #27
  %39 = load ptr, ptr %28, align 8, !tbaa !12
  %40 = getelementptr inbounds nuw i8, ptr %39, i64 24
  %41 = load ptr, ptr %40, align 8
  tail call void %41(ptr noundef nonnull align 8 dereferenceable(16) %28) #27
  br label %_ZNSt12__shared_ptrIN5arrow12_GLOBAL__N_115SignalStopStateELN9__gnu_cxx12_Lock_policyE2EED2Ev.exit

42:                                               ; preds = %29
  %43 = load i8, ptr @__libc_single_threaded, align 1, !tbaa !20
  %.not.i.i.i15 = icmp eq i8 %43, 0
  br i1 %.not.i.i.i15, label %46, label %44

44:                                               ; preds = %42
  %45 = add nsw i32 %33, -1
  store i32 %45, ptr %30, align 4, !tbaa !21
  br label %_ZN9__gnu_cxx27__exchange_and_add_dispatchEPii.exit.i.i.i

46:                                               ; preds = %42
  %47 = atomicrmw volatile add ptr %30, i32 -1 acq_rel, align 4
  br label %_ZN9__gnu_cxx27__exchange_and_add_dispatchEPii.exit.i.i.i

_ZN9__gnu_cxx27__exchange_and_add_dispatchEPii.exit.i.i.i: ; preds = %46, %44
  %.0.i.i.i.i = phi i32 [ %33, %44 ], [ %47, %46 ]
  %48 = icmp eq i32 %.0.i.i.i.i, 1
  br i1 %48, label %49, label %_ZNSt12__shared_ptrIN5arrow12_GLOBAL__N_115SignalStopStateELN9__gnu_cxx12_Lock_policyE2EED2Ev.exit, !prof !22

49:                                               ; preds = %_ZN9__gnu_cxx27__exchange_and_add_dispatchEPii.exit.i.i.i
  tail call void @_ZNSt16_Sp_counted_baseILN9__gnu_cxx12_Lock_policyE2EE24_M_release_last_use_coldEv(ptr noundef nonnull align 8 dereferenceable(16) %28) #27
  br label %_ZNSt12__shared_ptrIN5arrow12_GLOBAL__N_115SignalStopStateELN9__gnu_cxx12_Lock_policyE2EED2Ev.exit

_ZNSt12__shared_ptrIN5arrow12_GLOBAL__N_115SignalStopStateELN9__gnu_cxx12_Lock_policyE2EED2Ev.exit: ; preds = %26, %34, %_ZN9__gnu_cxx27__exchange_and_add_dispatchEPii.exit.i.i.i, %49
  tail call void @_ZdlPvm(ptr noundef nonnull %5, i64 noundef 16) #29
  br label %55

50:                                               ; preds = %3
  %51 = load ptr, ptr %2, align 8, !tbaa !20
  %52 = getelementptr inbounds nuw i8, ptr %51, i64 8
  store ptr %5, ptr %52, align 8, !tbaa !20
  %53 = load ptr, ptr %1, align 8, !tbaa !161
  %54 = load ptr, ptr %2, align 8, !tbaa !20
  store ptr %53, ptr %54, align 8, !tbaa !161
  store ptr null, ptr %1, align 8, !tbaa !161
  br label %55

55:                                               ; preds = %24, %_ZNSt12__shared_ptrIN5arrow12_GLOBAL__N_115SignalStopStateELN9__gnu_cxx12_Lock_policyE2EED2Ev.exit, %50, %_ZNSt10shared_ptrIN5arrow12_GLOBAL__N_115SignalStopStateEEC2ERKS3_.exit, %7, %6, %3
  ret void
}